; Function Attrs: nounwind uwtable
define internal ptr @rc4_hmac_md5_newctx(ptr readnone captures(none) %0) #0 {
  %2 = tail call i32 @ossl_prov_is_running() #4
  %.not = icmp eq i32 %2, 0
  br i1 %.not, label %7, label %3

3:                                                ; preds = %1
  %4 = tail call noalias ptr @CRYPTO_zalloc(i64 noundef 1520, ptr noundef nonnull @.str, i32 noundef 55) #4
  %.not5 = icmp eq ptr %4, null
  br i1 %.not5, label %7, label %5

5:                                                ; preds = %3
  %6 = tail call ptr @ossl_prov_cipher_hw_rc4_hmac_md5(i64 noundef 128) #4
  tail call void @ossl_cipher_generic_initkey(ptr noundef nonnull %4, i64 noundef 128, i64 noundef 8, i64 noundef 0, i32 noundef 0, i64 noundef 257, ptr noundef %6, ptr noundef null) #4
  br label %7

7:                                                ; preds = %3, %5, %1
  %.0 = phi ptr [ null, %1 ], [ %4, %5 ], [ null, %3 ]
  ret ptr %.0
}